; Function Attrs: mustprogress nounwind uwtable
define internal fastcc void @_ZZN12_GLOBAL__N_19FSTWriter5writeERSt3mapIibSt4lessIiESaISt4pairIKibEEEENUlPKciPN5Yosys5RTLIL4WireEibE_D2Ev(ptr noundef nonnull align 8 dereferenceable(56) %0) unnamed_addr #3 align 2 personality ptr @__gxx_personality_v0 {
  %2 = getelementptr inbounds i8, ptr %0, i64 8
  %3 = getelementptr inbounds i8, ptr %0, i64 24
  %4 = load ptr, ptr %3, align 8
  invoke void @_ZNSt8_Rb_treeIiSt4pairIKibESt10_Select1stIS2_ESt4lessIiESaIS2_EE8_M_eraseEPSt13_Rb_tree_nodeIS2_E(ptr noundef nonnull align 8 dereferenceable(48) %2, ptr noundef %4)
          to label %_ZNSt3mapIibSt4lessIiESaISt4pairIKibEEED2Ev.exit unwind label %5

5:                                                ; preds = %1
  %6 = landingpad { ptr, i32 }
          catch ptr null
  %7 = extractvalue { ptr, i32 } %6, 0
  tail call void @__clang_call_terminate(ptr %7) #30
  unreachable

_ZNSt3mapIibSt4lessIiESaISt4pairIKibEEED2Ev.exit: ; preds = %1
  ret void
}